; ModuleID = '9/1245.c'
source_filename = "9/1245.c"
target datalayout = "e-m:e-p270:32:32-p271:32:32-p272:64:64-i64:64-f80:128-n8:16:32:64-S128"
target triple = "x86_64-pc-linux-gnu"

%struct.huanzhe = type { [11 x i8], i32 }

@.str = private unnamed_addr constant [3 x i8] c"%d\00", align 1
@.str.1 = private unnamed_addr constant [6 x i8] c"%s %d\00", align 1
@sick = common dso_local global [110 x %struct.huanzhe] zeroinitializer, align 16
@.str.2 = private unnamed_addr constant [4 x i8] c"%s\0A\00", align 1

; Function Attrs: noinline nounwind uwtable
define dso_local i32 @main(i32 %0, i8** %1) #0 {
  %3 = alloca i32, align 4
  %4 = alloca i32, align 4
  %5 = alloca i8**, align 8
  %6 = alloca i32, align 4
  %7 = alloca i32, align 4
  %8 = alloca i32, align 4
  %9 = alloca [110 x i32], align 16
  %10 = alloca [110 x i32], align 16
  %11 = alloca i32*, align 8
  %12 = alloca i32*, align 8
  store i32 0, i32* %3, align 4
  store i32 %0, i32* %4, align 4
  store i8** %1, i8*** %5, align 8
  %13 = bitcast [110 x i32]* %9 to i8*
  call void @llvm.memset.p0i8.i64(i8* align 16 %13, i8 0, i64 440, i1 false)
  %14 = bitcast i8* %13 to <{ i32, [109 x i32] }>*
  %15 = getelementptr inbounds <{ i32, [109 x i32] }>, <{ i32, [109 x i32] }>* %14, i32 0, i32 0
  store i32 1, i32* %15, align 16
  %16 = getelementptr inbounds [110 x i32], [110 x i32]* %9, i64 0, i64 0
  store i32* %16, i32** %11, align 8
  %17 = getelementptr inbounds [110 x i32], [110 x i32]* %10, i64 0, i64 0
  store i32* %17, i32** %12, align 8
  %18 = call i32 (i8*, ...) @__isoc99_scanf(i8* getelementptr inbounds ([3 x i8], [3 x i8]* @.str, i64 0, i64 0), i32* %6)
  store i32 0, i32* %7, align 4
  br label %19

19:                                               ; preds = %33, %2
  %20 = load i32, i32* %7, align 4
  %21 = load i32, i32* %6, align 4
  %22 = icmp slt i32 %20, %21
  br i1 %22, label %23, label %36

23:                                               ; preds = %19
  %24 = load i32, i32* %7, align 4
  %25 = sext i32 %24 to i64
  %26 = getelementptr inbounds [110 x %struct.huanzhe], [110 x %struct.huanzhe]* @sick, i64 0, i64 %25
  %27 = getelementptr inbounds %struct.huanzhe, %struct.huanzhe* %26, i32 0, i32 0
  %28 = load i32, i32* %7, align 4
  %29 = sext i32 %28 to i64
  %30 = getelementptr inbounds [110 x %struct.huanzhe], [110 x %struct.huanzhe]* @sick, i64 0, i64 %29
  %31 = getelementptr inbounds %struct.huanzhe, %struct.huanzhe* %30, i32 0, i32 1
  %32 = call i32 (i8*, ...) @__isoc99_scanf(i8* getelementptr inbounds ([6 x i8], [6 x i8]* @.str.1, i64 0, i64 0), [11 x i8]* %27, i32* %31)
  br label %33

33:                                               ; preds = %23
  %34 = load i32, i32* %7, align 4
  %35 = add nsw i32 %34, 1
  store i32 %35, i32* %7, align 4
  br label %19

36:                                               ; preds = %19
  store i32 0, i32* %7, align 4
  br label %37

37:                                               ; preds = %59, %36
  %38 = load i32, i32* %7, align 4
  %39 = load i32, i32* %6, align 4
  %40 = icmp slt i32 %38, %39
  br i1 %40, label %41, label %62

41:                                               ; preds = %37
  %42 = load i32*, i32** %11, align 8
  %43 = load i32*, i32** %12, align 8
  %44 = load i32, i32* %7, align 4
  %45 = sext i32 %44 to i64
  %46 = getelementptr inbounds [110 x %struct.huanzhe], [110 x %struct.huanzhe]* @sick, i64 0, i64 %45
  %47 = getelementptr inbounds %struct.huanzhe, %struct.huanzhe* %46, i32 0, i32 1
  %48 = load i32, i32* %47, align 4
  %49 = load i32, i32* %7, align 4
  %50 = call i32 @panduan(i32* %42, i32* %43, i32 %48, i32 %49)
  store i32 %50, i32* %8, align 4
  %51 = load i32, i32* %8, align 4
  %52 = icmp ne i32 %51, 0
  br i1 %52, label %53, label %58

53:                                               ; preds = %41
  %54 = load i32, i32* %7, align 4
  %55 = sext i32 %54 to i64
  %56 = getelementptr inbounds [110 x %struct.huanzhe], [110 x %struct.huanzhe]* @sick, i64 0, i64 %55
  %57 = getelementptr inbounds %struct.huanzhe, %struct.huanzhe* %56, i32 0, i32 1
  store i32 0, i32* %57, align 4
  br label %58

58:                                               ; preds = %53, %41
  br label %59

59:                                               ; preds = %58
  %60 = load i32, i32* %7, align 4
  %61 = add nsw i32 %60, 1
  store i32 %61, i32* %7, align 4
  br label %37

62:                                               ; preds = %37
  %63 = load i32*, i32** %11, align 8
  %64 = load i32*, i32** %12, align 8
  %65 = getelementptr inbounds [110 x i32], [110 x i32]* %9, i64 0, i64 0
  %66 = load i32, i32* %65, align 16
  call void @paixu(i32* %63, i32* %64, i32 %66)
  store i32 1, i32* %7, align 4
  br label %67

67:                                               ; preds = %81, %62
  %68 = load i32, i32* %7, align 4
  %69 = getelementptr inbounds [110 x i32], [110 x i32]* %9, i64 0, i64 0
  %70 = load i32, i32* %69, align 16
  %71 = icmp slt i32 %68, %70
  br i1 %71, label %72, label %84

72:                                               ; preds = %67
  %73 = load i32, i32* %7, align 4
  %74 = sext i32 %73 to i64
  %75 = getelementptr inbounds [110 x i32], [110 x i32]* %9, i64 0, i64 %74
  %76 = load i32, i32* %75, align 4
  %77 = sext i32 %76 to i64
  %78 = getelementptr inbounds [110 x %struct.huanzhe], [110 x %struct.huanzhe]* @sick, i64 0, i64 %77
  %79 = getelementptr inbounds %struct.huanzhe, %struct.huanzhe* %78, i32 0, i32 0
  %80 = call i32 (i8*, ...) @printf(i8* getelementptr inbounds ([4 x i8], [4 x i8]* @.str.2, i64 0, i64 0), [11 x i8]* %79)
  br label %81

81:                                               ; preds = %72
  %82 = load i32, i32* %7, align 4
  %83 = add nsw i32 %82, 1
  store i32 %83, i32* %7, align 4
  br label %67

84:                                               ; preds = %67
  store i32 0, i32* %7, align 4
  br label %85

85:                                               ; preds = %104, %84
  %86 = load i32, i32* %7, align 4
  %87 = load i32, i32* %6, align 4
  %88 = icmp slt i32 %86, %87
  br i1 %88, label %89, label %107

89:                                               ; preds = %85
  %90 = load i32, i32* %7, align 4
  %91 = sext i32 %90 to i64
  %92 = getelementptr inbounds [110 x %struct.huanzhe], [110 x %struct.huanzhe]* @sick, i64 0, i64 %91
  %93 = getelementptr inbounds %struct.huanzhe, %struct.huanzhe* %92, i32 0, i32 1
  %94 = load i32, i32* %93, align 4
  %95 = icmp eq i32 %94, 0
  br i1 %95, label %96, label %97

96:                                               ; preds = %89
  br label %104

97:                                               ; preds = %89
  %98 = load i32, i32* %7, align 4
  %99 = sext i32 %98 to i64
  %100 = getelementptr inbounds [110 x %struct.huanzhe], [110 x %struct.huanzhe]* @sick, i64 0, i64 %99
  %101 = getelementptr inbounds %struct.huanzhe, %struct.huanzhe* %100, i32 0, i32 0
  %102 = getelementptr inbounds [11 x i8], [11 x i8]* %101, i64 0, i64 0
  %103 = call i32 (i8*, ...) @printf(i8* getelementptr inbounds ([4 x i8], [4 x i8]* @.str.2, i64 0, i64 0), i8* %102)
  br label %104

104:                                              ; preds = %97, %96
  %105 = load i32, i32* %7, align 4
  %106 = add nsw i32 %105, 1
  store i32 %106, i32* %7, align 4
  br label %85

107:                                              ; preds = %85
  ret i32 0
}

; Function Attrs: argmemonly nounwind willreturn
declare void @llvm.memset.p0i8.i64(i8* nocapture writeonly, i8, i64, i1 immarg) #1

declare dso_local i32 @__isoc99_scanf(i8*, ...) #2

; Function Attrs: noinline nounwind uwtable
define dso_local i32 @panduan(i32* %0, i32* %1, i32 %2, i32 %3) #0 {
  %5 = alloca i32*, align 8
  %6 = alloca i32*, align 8
  %7 = alloca i32, align 4
  %8 = alloca i32, align 4
  %9 = alloca i32, align 4
  store i32* %0, i32** %5, align 8
  store i32* %1, i32** %6, align 8
  store i32 %2, i32* %7, align 4
  store i32 %3, i32* %8, align 4
  store i32 0, i32* %9, align 4
  %10 = load i32, i32* %7, align 4
  %11 = icmp sge i32 %10, 60
  br i1 %11, label %12, label %28

12:                                               ; preds = %4
  %13 = load i32, i32* %8, align 4
  %14 = load i32*, i32** %5, align 8
  %15 = load i32*, i32** %5, align 8
  %16 = load i32, i32* %15, align 4
  %17 = sext i32 %16 to i64
  %18 = getelementptr inbounds i32, i32* %14, i64 %17
  store i32 %13, i32* %18, align 4
  %19 = load i32, i32* %7, align 4
  %20 = load i32*, i32** %6, align 8
  %21 = load i32*, i32** %5, align 8
  %22 = load i32, i32* %21, align 4
  %23 = sext i32 %22 to i64
  %24 = getelementptr inbounds i32, i32* %20, i64 %23
  store i32 %19, i32* %24, align 4
  %25 = load i32*, i32** %5, align 8
  %26 = load i32, i32* %25, align 4
  %27 = add nsw i32 %26, 1
  store i32 %27, i32* %25, align 4
  store i32 1, i32* %9, align 4
  br label %28

28:                                               ; preds = %12, %4
  %29 = load i32, i32* %9, align 4
  ret i32 %29
}

; Function Attrs: noinline nounwind uwtable
define dso_local void @paixu(i32* %0, i32* %1, i32 %2) #0 {
  %4 = alloca i32*, align 8
  %5 = alloca i32*, align 8
  %6 = alloca i32, align 4
  %7 = alloca i32, align 4
  %8 = alloca i32, align 4
  %9 = alloca i32, align 4
  store i32* %0, i32** %4, align 8
  store i32* %1, i32** %5, align 8
  store i32 %2, i32* %6, align 4
  store i32 0, i32* %7, align 4
  br label %10

10:                                               ; preds = %43, %3
  %11 = load i32, i32* %7, align 4
  %12 = load i32, i32* %6, align 4
  %13 = icmp slt i32 %11, %12
  br i1 %13, label %14, label %46

14:                                               ; preds = %10
  store i32 1, i32* %8, align 4
  br label %15

15:                                               ; preds = %39, %14
  %16 = load i32, i32* %8, align 4
  %17 = load i32, i32* %6, align 4
  %18 = sub nsw i32 %17, 1
  %19 = icmp slt i32 %16, %18
  br i1 %19, label %20, label %42

20:                                               ; preds = %15
  %21 = load i32*, i32** %5, align 8
  %22 = load i32, i32* %8, align 4
  %23 = sext i32 %22 to i64
  %24 = getelementptr inbounds i32, i32* %21, i64 %23
  %25 = load i32, i32* %24, align 4
  %26 = load i32*, i32** %5, align 8
  %27 = load i32, i32* %8, align 4
  %28 = sext i32 %27 to i64
  %29 = getelementptr inbounds i32, i32* %26, i64 %28
  %30 = getelementptr inbounds i32, i32* %29, i64 1
  %31 = load i32, i32* %30, align 4
  %32 = icmp slt i32 %25, %31
  br i1 %32, label %33, label %38

33:                                               ; preds = %20
  %34 = load i32*, i32** %4, align 8
  %35 = call i32 (i32*, ...) bitcast (i32 (...)* @bian to i32 (i32*, ...)*)(i32* %34)
  %36 = load i32*, i32** %5, align 8
  %37 = call i32 (i32*, ...) bitcast (i32 (...)* @bian to i32 (i32*, ...)*)(i32* %36)
  br label %38

38:                                               ; preds = %33, %20
  br label %39

39:                                               ; preds = %38
  %40 = load i32, i32* %8, align 4
  %41 = add nsw i32 %40, 1
  store i32 %41, i32* %8, align 4
  br label %15

42:                                               ; preds = %15
  br label %43

43:                                               ; preds = %42
  %44 = load i32, i32* %7, align 4
  %45 = add nsw i32 %44, 1
  store i32 %45, i32* %7, align 4
  br label %10

46:                                               ; preds = %10
  ret void
}

declare dso_local i32 @printf(i8*, ...) #2

declare dso_local i32 @bian(...) #2


!llvm.module.flags = !{!0}
!llvm.ident = !{!1}

!0 = !{i32 1, !"wchar_size", i32 4}
!1 = !{!"clang version 10.0.0-4ubuntu1 "}
